target datalayout = "e-m:e-p270:32:32-p271:32:32-p272:64:64-i64:64-i128:128-f80:128-n8:16:32:64-S128"
target triple = "x86_64-pc-linux-gnu"

%struct._typeobject = type { %struct.PyVarObject, ptr, i64, i64, ptr, i64, ptr, ptr, ptr, ptr, ptr, ptr, ptr, ptr, ptr, ptr, ptr, ptr, ptr, i64, ptr, ptr, ptr, ptr, i64, ptr, ptr, ptr, ptr, ptr, ptr, ptr, ptr, ptr, i64, ptr, ptr, ptr, ptr, ptr, ptr, ptr, ptr, ptr, ptr, ptr, i32, ptr, ptr, i8, i16 }
%struct.PyVarObject = type { %struct._object, i64 }
%struct._object = type { %union.anon, ptr }
%union.anon = type { i64 }
%struct._ts = type { ptr, ptr, ptr, i64, %struct.anon.805, i32, i32, i32, i32, i32, i32, i32, i32, ptr, ptr, ptr, ptr, ptr, ptr, ptr, ptr, i32, ptr, i64, i64, ptr, i64, i32, ptr, ptr, ptr, i64, i64, ptr, ptr, ptr, %struct._err_stackitem, ptr, i64, ptr, ptr }
%struct.anon.805 = type { i32 }
%struct._err_stackitem = type { ptr, ptr }
%struct.anon = type { i32, i32 }

@PyUnicode_Type = external global %struct._typeobject, align 8
@_Py_tss_tstate = external thread_local global ptr, align 8

; Function Attrs: alwaysinline nounwind uwtable
define internal void @Py_INCREF(ptr noundef %0) #6 {
  %2 = alloca ptr, align 8
  %3 = alloca i32, align 4
  %4 = alloca i32, align 4
  store ptr %0, ptr %2, align 8, !tbaa !27
  call void @llvm.lifetime.start.p0(i64 4, ptr %3) #10
  %5 = load ptr, ptr %2, align 8, !tbaa !27
  %6 = getelementptr inbounds nuw %struct._object, ptr %5, i32 0, i32 0
  %7 = getelementptr inbounds nuw %struct.anon, ptr %6, i32 0, i32 0
  %8 = load i32, ptr %7, align 8, !tbaa !38
  store i32 %8, ptr %3, align 4, !tbaa !28
  %9 = load i32, ptr %3, align 4, !tbaa !28
  %10 = icmp slt i32 %9, 0
  br i1 %10, label %11, label %12

11:                                               ; preds = %1
  store i32 1, ptr %4, align 4
  br label %18

12:                                               ; preds = %1
  %13 = load i32, ptr %3, align 4, !tbaa !28
  %14 = add i32 %13, 1
  %15 = load ptr, ptr %2, align 8, !tbaa !27
  %16 = getelementptr inbounds nuw %struct._object, ptr %15, i32 0, i32 0
  %17 = getelementptr inbounds nuw %struct.anon, ptr %16, i32 0, i32 0
  store i32 %14, ptr %17, align 8, !tbaa !38
  store i32 0, ptr %4, align 4
  br label %18

18:                                               ; preds = %12, %11
  call void @llvm.lifetime.end.p0(i64 4, ptr %3) #10
  %19 = load i32, ptr %4, align 4
  switch i32 %19, label %21 [
    i32 0, label %20
    i32 1, label %20
  ]

20:                                               ; preds = %18, %18
  ret void

21:                                               ; preds = %18
  unreachable
}

; Function Attrs: alwaysinline nounwind uwtable
define internal i32 @_Py_IsImmortal(ptr noundef %0) #6 {
  %2 = alloca ptr, align 8
  store ptr %0, ptr %2, align 8, !tbaa !27
  %3 = load ptr, ptr %2, align 8, !tbaa !27
  %4 = getelementptr inbounds nuw %struct._object, ptr %3, i32 0, i32 0
  %5 = getelementptr inbounds nuw %struct.anon, ptr %4, i32 0, i32 0
  %6 = load i32, ptr %5, align 8, !tbaa !38
  %7 = icmp slt i32 %6, 0
  %8 = zext i1 %7 to i32
  ret i32 %8
}

; Function Attrs: inlinehint nounwind uwtable
define internal ptr @_Py_NewRef(ptr noundef %0) #2 {
  %2 = alloca ptr, align 8
  store ptr %0, ptr %2, align 8, !tbaa !27
  %3 = load ptr, ptr %2, align 8, !tbaa !27
  call void @Py_INCREF(ptr noundef %3)
  %4 = load ptr, ptr %2, align 8, !tbaa !27
  ret ptr %4
}

; Function Attrs: inlinehint nounwind uwtable
define internal ptr @_Py_TYPE(ptr noundef %0) #2 {
  %2 = alloca ptr, align 8
  store ptr %0, ptr %2, align 8, !tbaa !27
  %3 = load ptr, ptr %2, align 8, !tbaa !27
  %4 = getelementptr inbounds nuw %struct._object, ptr %3, i32 0, i32 1
  %5 = load ptr, ptr %4, align 8, !tbaa !65
  ret ptr %5
}

; Function Attrs: inlinehint nounwind uwtable
define internal ptr @_PyThreadState_GET() #2 {
  %1 = call align 8 ptr @llvm.threadlocal.address.p0(ptr align 8 @_Py_tss_tstate)
  %2 = load ptr, ptr %1, align 8, !tbaa !14
  ret ptr %2
}

; Function Attrs: alwaysinline nounwind uwtable
define internal void @Py_DECREF(ptr noundef %0) #6 {
  %2 = alloca ptr, align 8
  store ptr %0, ptr %2, align 8, !tbaa !27
  %3 = load ptr, ptr %2, align 8, !tbaa !27
  %4 = call i32 @_Py_IsImmortal(ptr noundef %3)
  %5 = icmp ne i32 %4, 0
  br i1 %5, label %6, label %7

6:                                                ; preds = %1
  br label %16

7:                                                ; preds = %1
  %8 = load ptr, ptr %2, align 8, !tbaa !27
  %9 = getelementptr inbounds nuw %struct._object, ptr %8, i32 0, i32 0
  %10 = getelementptr inbounds nuw %struct.anon, ptr %9, i32 0, i32 0
  %11 = load i32, ptr %10, align 8, !tbaa !38
  %12 = add i32 %11, -1
  store i32 %12, ptr %10, align 8, !tbaa !38
  %13 = icmp eq i32 %12, 0
  br i1 %13, label %14, label %16

14:                                               ; preds = %7
  %15 = load ptr, ptr %2, align 8, !tbaa !27
  call void @_Py_Dealloc(ptr noundef %15)
  br label %16

16:                                               ; preds = %6, %14, %7
  ret void
}

; Function Attrs: nounwind uwtable
define internal i32 @setitem_lock_held(ptr noundef %0, ptr noundef %1, ptr noundef %2) #0 {
  %4 = alloca ptr, align 8
  %5 = alloca ptr, align 8
  %6 = alloca ptr, align 8
  store ptr %0, ptr %4, align 8, !tbaa !29
  store ptr %1, ptr %5, align 8, !tbaa !27
  store ptr %2, ptr %6, align 8, !tbaa !27
  %7 = load ptr, ptr %4, align 8, !tbaa !29
  %8 = load ptr, ptr %5, align 8, !tbaa !27
  %9 = call ptr @_Py_NewRef(ptr noundef %8)
  %10 = load ptr, ptr %6, align 8, !tbaa !27
  %11 = call ptr @_Py_NewRef(ptr noundef %10)
  %12 = call i32 @setitem_take2_lock_held(ptr noundef %7, ptr noundef %9, ptr noundef %11)
  ret i32 %12
}

; Function Attrs: inlinehint nounwind uwtable
define internal i32 @Py_IS_TYPE(ptr noundef %0, ptr noundef %1) #2 {
  %3 = alloca ptr, align 8
  %4 = alloca ptr, align 8
  store ptr %0, ptr %3, align 8, !tbaa !27
  store ptr %1, ptr %4, align 8, !tbaa !56
  %5 = load ptr, ptr %3, align 8, !tbaa !27
  %6 = call ptr @_Py_TYPE(ptr noundef %5)
  %7 = load ptr, ptr %4, align 8, !tbaa !56
  %8 = icmp eq ptr %6, %7
  %9 = zext i1 %8 to i32
  ret i32 %9
}

; Function Attrs: inlinehint nounwind uwtable
define internal ptr @_PyInterpreterState_GET() #2 {
  %1 = alloca ptr, align 8
  call void @llvm.lifetime.start.p0(i64 8, ptr %1) #10
  %2 = call ptr @_PyThreadState_GET()
  store ptr %2, ptr %1, align 8, !tbaa !14
  %3 = load ptr, ptr %1, align 8, !tbaa !14
  %4 = getelementptr inbounds nuw %struct._ts, ptr %3, i32 0, i32 2
  %5 = load ptr, ptr %4, align 8, !tbaa !16
  call void @llvm.lifetime.end.p0(i64 8, ptr %1) #10
  ret ptr %5
}

; Function Attrs: nounwind uwtable
define dso_local ptr @_PyDict_FromItems(ptr noundef %0, i64 noundef %1, ptr noundef %2, i64 noundef %3, i64 noundef %4) #0 {
  %6 = alloca ptr, align 8
  %7 = alloca ptr, align 8
  %8 = alloca i64, align 8
  %9 = alloca ptr, align 8
  %10 = alloca i64, align 8
  %11 = alloca i64, align 8
  %12 = alloca i8, align 1
  %13 = alloca ptr, align 8
  %14 = alloca ptr, align 8
  %15 = alloca i64, align 8
  %16 = alloca i32, align 4
  %17 = alloca ptr, align 8
  %18 = alloca ptr, align 8
  %19 = alloca i64, align 8
  %20 = alloca ptr, align 8
  %21 = alloca ptr, align 8
  store ptr %0, ptr %7, align 8, !tbaa !77
  store i64 %1, ptr %8, align 8, !tbaa !39
  store ptr %2, ptr %9, align 8, !tbaa !77
  store i64 %3, ptr %10, align 8, !tbaa !39
  store i64 %4, ptr %11, align 8, !tbaa !39
  call void @llvm.lifetime.start.p0(i64 1, ptr %12) #10
  store i8 1, ptr %12, align 1, !tbaa !84
  call void @llvm.lifetime.start.p0(i64 8, ptr %13) #10
  %22 = load ptr, ptr %7, align 8, !tbaa !77
  store ptr %22, ptr %13, align 8, !tbaa !77
  call void @llvm.lifetime.start.p0(i64 8, ptr %14) #10
  %23 = call ptr @_PyInterpreterState_GET()
  store ptr %23, ptr %14, align 8, !tbaa !71
  call void @llvm.lifetime.start.p0(i64 8, ptr %15) #10
  store i64 0, ptr %15, align 8, !tbaa !39
  br label %24

24:                                               ; preds = %39, %5
  %25 = load i64, ptr %15, align 8, !tbaa !39
  %26 = load i64, ptr %11, align 8, !tbaa !39
  %27 = icmp slt i64 %25, %26
  br i1 %27, label %29, label %28

28:                                               ; preds = %24
  store i32 2, ptr %16, align 4
  br label %42

29:                                               ; preds = %24
  %30 = load ptr, ptr %13, align 8, !tbaa !77
  %31 = load ptr, ptr %30, align 8, !tbaa !27
  %32 = call i32 @Py_IS_TYPE(ptr noundef %31, ptr noundef @PyUnicode_Type)
  %33 = icmp ne i32 %32, 0
  br i1 %33, label %35, label %34

34:                                               ; preds = %29
  store i8 0, ptr %12, align 1, !tbaa !84
  store i32 2, ptr %16, align 4
  br label %42

35:                                               ; preds = %29
  %36 = load i64, ptr %8, align 8, !tbaa !39
  %37 = load ptr, ptr %13, align 8, !tbaa !77
  %38 = getelementptr ptr, ptr %37, i64 %36
  store ptr %38, ptr %13, align 8, !tbaa !77
  br label %39

39:                                               ; preds = %35
  %40 = load i64, ptr %15, align 8, !tbaa !39
  %41 = add i64 %40, 1
  store i64 %41, ptr %15, align 8, !tbaa !39
  br label %24, !llvm.loop !88

42:                                               ; preds = %34, %28
  call void @llvm.lifetime.end.p0(i64 8, ptr %15) #10
  br label %43

43:                                               ; preds = %42
  call void @llvm.lifetime.start.p0(i64 8, ptr %17) #10
  %44 = load ptr, ptr %14, align 8, !tbaa !71
  %45 = load i64, ptr %11, align 8, !tbaa !39
  %46 = load i8, ptr %12, align 1, !tbaa !84, !range !86, !noundef !87
  %47 = trunc i8 %46 to i1
  %48 = call ptr @dict_new_presized(ptr noundef %44, i64 noundef %45, i1 noundef zeroext %47)
  store ptr %48, ptr %17, align 8, !tbaa !27
  %49 = load ptr, ptr %17, align 8, !tbaa !27
  %50 = icmp eq ptr %49, null
  br i1 %50, label %51, label %52

51:                                               ; preds = %43
  store ptr null, ptr %6, align 8
  store i32 1, ptr %16, align 4
  br label %90

52:                                               ; preds = %43
  %53 = load ptr, ptr %7, align 8, !tbaa !77
  store ptr %53, ptr %13, align 8, !tbaa !77
  call void @llvm.lifetime.start.p0(i64 8, ptr %18) #10
  %54 = load ptr, ptr %9, align 8, !tbaa !77
  store ptr %54, ptr %18, align 8, !tbaa !77
  call void @llvm.lifetime.start.p0(i64 8, ptr %19) #10
  store i64 0, ptr %19, align 8, !tbaa !39
  br label %55

55:                                               ; preds = %82, %52
  %56 = load i64, ptr %19, align 8, !tbaa !39
  %57 = load i64, ptr %11, align 8, !tbaa !39
  %58 = icmp slt i64 %56, %57
  br i1 %58, label %60, label %59

59:                                               ; preds = %55
  store i32 5, ptr %16, align 4
  br label %85

60:                                               ; preds = %55
  call void @llvm.lifetime.start.p0(i64 8, ptr %20) #10
  %61 = load ptr, ptr %13, align 8, !tbaa !77
  %62 = load ptr, ptr %61, align 8, !tbaa !27
  store ptr %62, ptr %20, align 8, !tbaa !27
  call void @llvm.lifetime.start.p0(i64 8, ptr %21) #10
  %63 = load ptr, ptr %18, align 8, !tbaa !77
  %64 = load ptr, ptr %63, align 8, !tbaa !27
  store ptr %64, ptr %21, align 8, !tbaa !27
  %65 = load ptr, ptr %17, align 8, !tbaa !27
  %66 = load ptr, ptr %20, align 8, !tbaa !27
  %67 = load ptr, ptr %21, align 8, !tbaa !27
  %68 = call i32 @setitem_lock_held(ptr noundef %65, ptr noundef %66, ptr noundef %67)
  %69 = icmp slt i32 %68, 0
  br i1 %69, label %70, label %72

70:                                               ; preds = %60
  %71 = load ptr, ptr %17, align 8, !tbaa !27
  call void @Py_DECREF(ptr noundef %71)
  store ptr null, ptr %6, align 8
  store i32 1, ptr %16, align 4
  br label %79

72:                                               ; preds = %60
  %73 = load i64, ptr %8, align 8, !tbaa !39
  %74 = load ptr, ptr %13, align 8, !tbaa !77
  %75 = getelementptr ptr, ptr %74, i64 %73
  store ptr %75, ptr %13, align 8, !tbaa !77
  %76 = load i64, ptr %10, align 8, !tbaa !39
  %77 = load ptr, ptr %18, align 8, !tbaa !77
  %78 = getelementptr ptr, ptr %77, i64 %76
  store ptr %78, ptr %18, align 8, !tbaa !77
  store i32 0, ptr %16, align 4
  br label %79

79:                                               ; preds = %72, %70
  call void @llvm.lifetime.end.p0(i64 8, ptr %21) #10
  call void @llvm.lifetime.end.p0(i64 8, ptr %20) #10
  %80 = load i32, ptr %16, align 4
  switch i32 %80, label %85 [
    i32 0, label %81
  ]

81:                                               ; preds = %79
  br label %82

82:                                               ; preds = %81
  %83 = load i64, ptr %19, align 8, !tbaa !39
  %84 = add i64 %83, 1
  store i64 %84, ptr %19, align 8, !tbaa !39
  br label %55, !llvm.loop !89

85:                                               ; preds = %79, %59
  call void @llvm.lifetime.end.p0(i64 8, ptr %19) #10
  %86 = load i32, ptr %16, align 4
  switch i32 %86, label %89 [
    i32 5, label %87
  ]

87:                                               ; preds = %85
  %88 = load ptr, ptr %17, align 8, !tbaa !27
  store ptr %88, ptr %6, align 8
  store i32 1, ptr %16, align 4
  br label %89

89:                                               ; preds = %87, %85
  call void @llvm.lifetime.end.p0(i64 8, ptr %18) #10
  br label %90

90:                                               ; preds = %89, %51
  call void @llvm.lifetime.end.p0(i64 8, ptr %17) #10
  call void @llvm.lifetime.end.p0(i64 8, ptr %14) #10
  call void @llvm.lifetime.end.p0(i64 8, ptr %13) #10
  call void @llvm.lifetime.end.p0(i64 1, ptr %12) #10
  %91 = load ptr, ptr %6, align 8
  ret ptr %91
}