; Function Attrs: nounwind uwtable
define dso_local ptr @_PyDict_FromItems(ptr noundef readonly captures(none) %0, i64 noundef %1, ptr noundef readonly captures(none) %2, i64 noundef %3, i64 noundef %4) local_unnamed_addr #0 {
  %6 = icmp slt i64 %4, 1
  br i1 %6, label %._crit_edge, label %.lr.ph

.lr.ph:                                           ; preds = %5, %.lr.ph
  %.03445 = phi ptr [ %9, %.lr.ph ], [ %0, %5 ]
  %.03944 = phi i64 [ %10, %.lr.ph ], [ 0, %5 ]
  %7 = load ptr, ptr %.03445, align 8, !tbaa !64
  %8 = getelementptr i8, ptr %7, i64 8
  %.val = load ptr, ptr %8, align 8, !tbaa !25
  %.not = icmp eq ptr %.val, @PyUnicode_Type
  %9 = getelementptr ptr, ptr %.03445, i64 %1
  %10 = add nuw nsw i64 %.03944, 1
  %exitcond.not = icmp ne i64 %10, %4
  %or.cond.not = select i1 %.not, i1 %exitcond.not, i1 false
  br i1 %or.cond.not, label %.lr.ph, label %._crit_edge, !llvm.loop !145

._crit_edge:                                      ; preds = %.lr.ph, %5
  %.lcssa = phi i1 [ true, %5 ], [ %.not, %.lr.ph ]
  %11 = tail call fastcc ptr @dict_new_presized(i64 noundef %4, i1 noundef zeroext %.lcssa)
  %12 = icmp eq ptr %11, null
  br i1 %12, label %Py_DECREF.exit.thread, label %.preheader

.preheader:                                       ; preds = %._crit_edge
  %.not4148 = icmp sgt i64 %4, 0
  br i1 %.not4148, label %.lr.ph52, label %Py_DECREF.exit.thread

.lr.ph52:                                         ; preds = %.preheader, %31
  %.03151 = phi i64 [ %34, %31 ], [ 0, %.preheader ]
  %.03250 = phi ptr [ %33, %31 ], [ %2, %.preheader ]
  %.13549 = phi ptr [ %32, %31 ], [ %0, %.preheader ]
  %13 = load ptr, ptr %.13549, align 8, !tbaa !64
  %14 = load ptr, ptr %.03250, align 8, !tbaa !64
  %15 = load i32, ptr %13, align 8, !tbaa !41
  %16 = icmp slt i32 %15, 0
  br i1 %16, label %_Py_NewRef.exit.i, label %17

17:                                               ; preds = %.lr.ph52
  %18 = add nuw i32 %15, 1
  store i32 %18, ptr %13, align 8, !tbaa !41
  br label %_Py_NewRef.exit.i

_Py_NewRef.exit.i:                                ; preds = %17, %.lr.ph52
  %19 = load i32, ptr %14, align 8, !tbaa !41
  %20 = icmp slt i32 %19, 0
  br i1 %20, label %setitem_lock_held.exit, label %21

21:                                               ; preds = %_Py_NewRef.exit.i
  %22 = add nuw i32 %19, 1
  store i32 %22, ptr %14, align 8, !tbaa !41
  br label %setitem_lock_held.exit

setitem_lock_held.exit:                           ; preds = %_Py_NewRef.exit.i, %21
  %23 = tail call fastcc range(i32 -1, 1) i32 @setitem_take2_lock_held(ptr noundef nonnull %11, ptr noundef nonnull %13, ptr noundef nonnull %14)
  %24 = icmp sgt i32 %23, -1
  br i1 %24, label %31, label %25

25:                                               ; preds = %setitem_lock_held.exit
  %26 = load i32, ptr %11, align 8, !tbaa !41
  %.not.i = icmp sgt i32 %26, -1
  br i1 %.not.i, label %27, label %Py_DECREF.exit.thread

27:                                               ; preds = %25
  %28 = add nsw i32 %26, -1
  store i32 %28, ptr %11, align 8, !tbaa !41
  %29 = icmp eq i32 %28, 0
  br i1 %29, label %30, label %Py_DECREF.exit.thread

30:                                               ; preds = %27
  tail call void @_Py_Dealloc(ptr noundef nonnull %11) #23
  br label %Py_DECREF.exit.thread

31:                                               ; preds = %setitem_lock_held.exit
  %32 = getelementptr ptr, ptr %.13549, i64 %1
  %33 = getelementptr ptr, ptr %.03250, i64 %3
  %34 = add nuw nsw i64 %.03151, 1
  %exitcond54.not = icmp eq i64 %34, %4
  br i1 %exitcond54.not, label %Py_DECREF.exit.thread, label %.lr.ph52, !llvm.loop !146

Py_DECREF.exit.thread:                            ; preds = %31, %.preheader, %30, %27, %25, %._crit_edge
  %.0 = phi ptr [ null, %._crit_edge ], [ null, %25 ], [ null, %27 ], [ null, %30 ], [ %11, %.preheader ], [ %11, %31 ]
  ret ptr %.0
}